target datalayout = "e-m:e-p270:32:32-p271:32:32-p272:64:64-i64:64-i128:128-f80:128-n8:16:32:64-S128"
target triple = "x86_64-pc-linux-gnu"

%struct.mock_srv_ctx = type { ptr, ptr, ptr, ptr, ptr, ptr, ptr, ptr, ptr, ptr, i32, ptr, i32, i32, i32 }

@.str = private unnamed_addr constant [35 x i8] c"../openssl/apps/lib/cmp_mock_srv.c\00", align 1
@__func__.process_rr = private unnamed_addr constant [11 x i8] c"process_rr\00", align 1
@.str.2 = private unnamed_addr constant [28 x i8] c"wrong certificate to revoke\00", align 1

; Function Attrs: nounwind uwtable
define internal i32 @refcert_cmp(ptr noundef %0, ptr noundef %1, ptr noundef %2) #0 {
  %4 = alloca i32, align 4
  %5 = alloca ptr, align 8
  %6 = alloca ptr, align 8
  %7 = alloca ptr, align 8
  %8 = alloca ptr, align 8
  %9 = alloca ptr, align 8
  %10 = alloca i32, align 4
  store ptr %0, ptr %5, align 8, !tbaa !9
  store ptr %1, ptr %6, align 8, !tbaa !66
  store ptr %2, ptr %7, align 8, !tbaa !60
  call void @llvm.lifetime.start.p0(i64 8, ptr %8) #5
  call void @llvm.lifetime.start.p0(i64 8, ptr %9) #5
  %11 = load ptr, ptr %5, align 8, !tbaa !9
  %12 = icmp eq ptr %11, null
  br i1 %12, label %13, label %14

13:                                               ; preds = %3
  store i32 1, ptr %4, align 4
  store i32 1, ptr %10, align 4
  br label %39

14:                                               ; preds = %3
  %15 = load ptr, ptr %5, align 8, !tbaa !9
  %16 = call ptr @X509_get_issuer_name(ptr noundef %15)
  store ptr %16, ptr %8, align 8, !tbaa !66
  %17 = load ptr, ptr %5, align 8, !tbaa !9
  %18 = call ptr @X509_get0_serialNumber(ptr noundef %17)
  store ptr %18, ptr %9, align 8, !tbaa !60
  %19 = load ptr, ptr %8, align 8, !tbaa !66
  %20 = icmp eq ptr %19, null
  br i1 %20, label %26, label %21

21:                                               ; preds = %14
  %22 = load ptr, ptr %6, align 8, !tbaa !66
  %23 = load ptr, ptr %8, align 8, !tbaa !66
  %24 = call i32 @X509_NAME_cmp(ptr noundef %22, ptr noundef %23)
  %25 = icmp eq i32 %24, 0
  br i1 %25, label %26, label %36

26:                                               ; preds = %21, %14
  %27 = load ptr, ptr %9, align 8, !tbaa !60
  %28 = icmp eq ptr %27, null
  br i1 %28, label %34, label %29

29:                                               ; preds = %26
  %30 = load ptr, ptr %7, align 8, !tbaa !60
  %31 = load ptr, ptr %9, align 8, !tbaa !60
  %32 = call i32 @ASN1_INTEGER_cmp(ptr noundef %30, ptr noundef %31)
  %33 = icmp eq i32 %32, 0
  br label %34

34:                                               ; preds = %29, %26
  %35 = phi i1 [ true, %26 ], [ %33, %29 ]
  br label %36

36:                                               ; preds = %34, %21
  %37 = phi i1 [ false, %21 ], [ %35, %34 ]
  %38 = zext i1 %37 to i32
  store i32 %38, ptr %4, align 4
  store i32 1, ptr %10, align 4
  br label %39

39:                                               ; preds = %36, %13
  call void @llvm.lifetime.end.p0(i64 8, ptr %9) #5
  call void @llvm.lifetime.end.p0(i64 8, ptr %8) #5
  %40 = load i32, ptr %4, align 4
  ret i32 %40
}

; Function Attrs: nounwind uwtable
define internal ptr @process_rr(ptr noundef %0, ptr noundef %1, ptr noundef %2, ptr noundef %3) #0 {
  %5 = alloca ptr, align 8
  %6 = alloca ptr, align 8
  %7 = alloca ptr, align 8
  %8 = alloca ptr, align 8
  %9 = alloca ptr, align 8
  %10 = alloca ptr, align 8
  %11 = alloca i32, align 4
  store ptr %0, ptr %6, align 8, !tbaa !4
  store ptr %1, ptr %7, align 8, !tbaa !41
  store ptr %2, ptr %8, align 8, !tbaa !66
  store ptr %3, ptr %9, align 8, !tbaa !60
  call void @llvm.lifetime.start.p0(i64 8, ptr %10) #5
  %12 = load ptr, ptr %6, align 8, !tbaa !4
  %13 = call ptr @OSSL_CMP_SRV_CTX_get0_custom_ctx(ptr noundef %12)
  store ptr %13, ptr %10, align 8, !tbaa !11
  %14 = load ptr, ptr %10, align 8, !tbaa !11
  %15 = icmp eq ptr %14, null
  br i1 %15, label %19, label %16

16:                                               ; preds = %4
  %17 = load ptr, ptr %7, align 8, !tbaa !41
  %18 = icmp eq ptr %17, null
  br i1 %18, label %19, label %20

19:                                               ; preds = %16, %4
  call void @ERR_new()
  call void @ERR_set_debug(ptr noundef @.str, i32 noundef 424, ptr noundef @__func__.process_rr)
  call void (i32, i32, ptr, ...) @ERR_set_error(i32 noundef 58, i32 noundef 103, ptr noundef null)
  store ptr null, ptr %5, align 8
  store i32 1, ptr %11, align 4
  br label %53

20:                                               ; preds = %16
  %21 = load ptr, ptr %10, align 8, !tbaa !11
  %22 = getelementptr inbounds nuw %struct.mock_srv_ctx, ptr %21, i32 0, i32 10
  %23 = load i32, ptr %22, align 8, !tbaa !36
  %24 = icmp eq i32 %23, 1
  br i1 %24, label %32, label %25

25:                                               ; preds = %20
  %26 = load ptr, ptr %10, align 8, !tbaa !11
  %27 = getelementptr inbounds nuw %struct.mock_srv_ctx, ptr %26, i32 0, i32 10
  %28 = load i32, ptr %27, align 8, !tbaa !36
  %29 = load ptr, ptr %7, align 8, !tbaa !41
  %30 = call i32 @OSSL_CMP_MSG_get_bodytype(ptr noundef %29)
  %31 = icmp eq i32 %28, %30
  br i1 %31, label %32, label %33

32:                                               ; preds = %25, %20
  call void @ERR_new()
  call void @ERR_set_debug(ptr noundef @.str, i32 noundef 429, ptr noundef @__func__.process_rr)
  call void (i32, i32, ptr, ...) @ERR_set_error(i32 noundef 58, i32 noundef 158, ptr noundef null)
  store ptr null, ptr %5, align 8
  store i32 1, ptr %11, align 4
  br label %53

33:                                               ; preds = %25
  %34 = load ptr, ptr %8, align 8, !tbaa !66
  %35 = icmp ne ptr %34, null
  br i1 %35, label %39, label %36

36:                                               ; preds = %33
  %37 = load ptr, ptr %9, align 8, !tbaa !60
  %38 = icmp ne ptr %37, null
  br i1 %38, label %39, label %48

39:                                               ; preds = %36, %33
  %40 = load ptr, ptr %10, align 8, !tbaa !11
  %41 = getelementptr inbounds nuw %struct.mock_srv_ctx, ptr %40, i32 0, i32 0
  %42 = load ptr, ptr %41, align 8, !tbaa !12
  %43 = load ptr, ptr %8, align 8, !tbaa !66
  %44 = load ptr, ptr %9, align 8, !tbaa !60
  %45 = call i32 @refcert_cmp(ptr noundef %42, ptr noundef %43, ptr noundef %44)
  %46 = icmp ne i32 %45, 0
  br i1 %46, label %48, label %47

47:                                               ; preds = %39
  call void @ERR_new()
  call void @ERR_set_debug(ptr noundef @.str, i32 noundef 437, ptr noundef @__func__.process_rr)
  call void (i32, i32, ptr, ...) @ERR_set_error(i32 noundef 58, i32 noundef 149, ptr noundef @.str.2)
  store ptr null, ptr %5, align 8
  store i32 1, ptr %11, align 4
  br label %53

48:                                               ; preds = %39, %36
  %49 = load ptr, ptr %10, align 8, !tbaa !11
  %50 = getelementptr inbounds nuw %struct.mock_srv_ctx, ptr %49, i32 0, i32 9
  %51 = load ptr, ptr %50, align 8, !tbaa !35
  %52 = call ptr @OSSL_CMP_PKISI_dup(ptr noundef %51)
  store ptr %52, ptr %5, align 8
  store i32 1, ptr %11, align 4
  br label %53

53:                                               ; preds = %48, %47, %32, %19
  call void @llvm.lifetime.end.p0(i64 8, ptr %10) #5
  %54 = load ptr, ptr %5, align 8
  ret ptr %54
}