; Function Attrs: nounwind uwtable
define internal ptr @process_rr(ptr noundef %0, ptr noundef %1, ptr noundef %2, ptr noundef %3) #0 {
  %5 = tail call ptr @OSSL_CMP_SRV_CTX_get0_custom_ctx(ptr noundef %0) #4
  %6 = icmp eq ptr %5, null
  %7 = icmp eq ptr %1, null
  %or.cond = or i1 %7, %6
  br i1 %or.cond, label %8, label %9

8:                                                ; preds = %4
  tail call void @ERR_new() #4
  tail call void @ERR_set_debug(ptr noundef nonnull @.str, i32 noundef 424, ptr noundef nonnull @__func__.process_rr) #4
  tail call void (i32, i32, ptr, ...) @ERR_set_error(i32 noundef 58, i32 noundef 103, ptr noundef null) #4
  br label %36

9:                                                ; preds = %4
  %10 = getelementptr inbounds nuw i8, ptr %5, i64 80
  %11 = load i32, ptr %10, align 8, !tbaa !25
  %12 = icmp eq i32 %11, 1
  br i1 %12, label %16, label %13

13:                                               ; preds = %9
  %14 = tail call i32 @OSSL_CMP_MSG_get_bodytype(ptr noundef nonnull %1) #4
  %15 = icmp eq i32 %11, %14
  br i1 %15, label %16, label %17

16:                                               ; preds = %13, %9
  tail call void @ERR_new() #4
  tail call void @ERR_set_debug(ptr noundef nonnull @.str, i32 noundef 429, ptr noundef nonnull @__func__.process_rr) #4
  tail call void (i32, i32, ptr, ...) @ERR_set_error(i32 noundef 58, i32 noundef 158, ptr noundef null) #4
  br label %36

17:                                               ; preds = %13
  %18 = icmp ne ptr %2, null
  %19 = icmp ne ptr %3, null
  %or.cond3 = or i1 %18, %19
  br i1 %or.cond3, label %20, label %refcert_cmp.exit.thread

20:                                               ; preds = %17
  %21 = load ptr, ptr %5, align 8, !tbaa !4
  %22 = icmp eq ptr %21, null
  br i1 %22, label %refcert_cmp.exit.thread, label %23

23:                                               ; preds = %20
  %24 = tail call ptr @X509_get_issuer_name(ptr noundef nonnull %21) #4
  %25 = tail call ptr @X509_get0_serialNumber(ptr noundef nonnull %21) #4
  %26 = icmp eq ptr %24, null
  br i1 %26, label %30, label %27

27:                                               ; preds = %23
  %28 = tail call i32 @X509_NAME_cmp(ptr noundef %2, ptr noundef nonnull %24) #4
  %29 = icmp eq i32 %28, 0
  br i1 %29, label %30, label %refcert_cmp.exit.thread21

30:                                               ; preds = %27, %23
  %31 = icmp eq ptr %25, null
  br i1 %31, label %refcert_cmp.exit.thread, label %refcert_cmp.exit

refcert_cmp.exit:                                 ; preds = %30
  %32 = tail call i32 @ASN1_INTEGER_cmp(ptr noundef %3, ptr noundef nonnull %25) #4
  %.not = icmp eq i32 %32, 0
  br i1 %.not, label %refcert_cmp.exit.thread, label %refcert_cmp.exit.thread21

refcert_cmp.exit.thread21:                        ; preds = %27, %refcert_cmp.exit
  tail call void @ERR_new() #4
  tail call void @ERR_set_debug(ptr noundef nonnull @.str, i32 noundef 437, ptr noundef nonnull @__func__.process_rr) #4
  tail call void (i32, i32, ptr, ...) @ERR_set_error(i32 noundef 58, i32 noundef 149, ptr noundef nonnull @.str.2) #4
  br label %36

refcert_cmp.exit.thread:                          ; preds = %30, %20, %17, %refcert_cmp.exit
  %33 = getelementptr inbounds nuw i8, ptr %5, i64 72
  %34 = load ptr, ptr %33, align 8, !tbaa !24
  %35 = tail call ptr @OSSL_CMP_PKISI_dup(ptr noundef %34) #4
  br label %36

36:                                               ; preds = %refcert_cmp.exit.thread, %refcert_cmp.exit.thread21, %16, %8
  %.0 = phi ptr [ null, %8 ], [ null, %16 ], [ %35, %refcert_cmp.exit.thread ], [ null, %refcert_cmp.exit.thread21 ]
  ret ptr %.0
}